target datalayout = "e-m:e-p270:32:32-p271:32:32-p272:64:64-i64:64-i128:128-f80:128-n8:16:32:64-S128"
target triple = "x86_64-pc-linux-gnu"

%struct.strbuf = type { i64, i64, ptr }
%struct.config_store_data = type { i64, ptr, i32, ptr, ptr, i32, ptr, i32, i32, ptr, i32, i32, i8 }

@__const.store_create_section.sb = private unnamed_addr constant %struct.strbuf { i64 0, i64 0, ptr @strbuf_slopbuf }, align 8
@.str.233 = private unnamed_addr constant [8 x i8] c"[%.*s \22\00", align 1
@.str.234 = private unnamed_addr constant [4 x i8] c"\22]\0A\00", align 1
@.str.235 = private unnamed_addr constant [3 x i8] c"]\0A\00", align 1

; Function Attrs: inlinehint nounwind uwtable
define internal i64 @strbuf_avail(ptr noundef %0) #6 {
  %2 = alloca ptr, align 8
  store ptr %0, ptr %2, align 8, !tbaa !33
  %3 = load ptr, ptr %2, align 8, !tbaa !33
  %4 = getelementptr inbounds nuw %struct.strbuf, ptr %3, i32 0, i32 0
  %5 = load i64, ptr %4, align 8, !tbaa !36
  %6 = icmp ne i64 %5, 0
  br i1 %6, label %7, label %16

7:                                                ; preds = %1
  %8 = load ptr, ptr %2, align 8, !tbaa !33
  %9 = getelementptr inbounds nuw %struct.strbuf, ptr %8, i32 0, i32 0
  %10 = load i64, ptr %9, align 8, !tbaa !36
  %11 = load ptr, ptr %2, align 8, !tbaa !33
  %12 = getelementptr inbounds nuw %struct.strbuf, ptr %11, i32 0, i32 1
  %13 = load i64, ptr %12, align 8, !tbaa !35
  %14 = sub i64 %10, %13
  %15 = sub i64 %14, 1
  br label %17

16:                                               ; preds = %1
  br label %17

17:                                               ; preds = %16, %7
  %18 = phi i64 [ %15, %7 ], [ 0, %16 ]
  ret i64 %18
}

; Function Attrs: inlinehint nounwind uwtable
define internal void @strbuf_addstr(ptr noundef %0, ptr noundef %1) #6 {
  %3 = alloca ptr, align 8
  %4 = alloca ptr, align 8
  store ptr %0, ptr %3, align 8, !tbaa !33
  store ptr %1, ptr %4, align 8, !tbaa !4
  %5 = load ptr, ptr %3, align 8, !tbaa !33
  %6 = load ptr, ptr %4, align 8, !tbaa !4
  %7 = load ptr, ptr %4, align 8, !tbaa !4
  %8 = call i64 @strlen(ptr noundef %7) #14
  call void @strbuf_add(ptr noundef %5, ptr noundef %6, i64 noundef %8)
  ret void
}

; Function Attrs: inlinehint nounwind uwtable
define internal void @strbuf_addch(ptr noundef %0, i32 noundef %1) #6 {
  %3 = alloca ptr, align 8
  %4 = alloca i32, align 4
  store ptr %0, ptr %3, align 8, !tbaa !33
  store i32 %1, ptr %4, align 4, !tbaa !13
  %5 = load ptr, ptr %3, align 8, !tbaa !33
  %6 = call i64 @strbuf_avail(ptr noundef %5)
  %7 = icmp ne i64 %6, 0
  br i1 %7, label %10, label %8

8:                                                ; preds = %2
  %9 = load ptr, ptr %3, align 8, !tbaa !33
  call void @strbuf_grow(ptr noundef %9, i64 noundef 1)
  br label %10

10:                                               ; preds = %8, %2
  %11 = load i32, ptr %4, align 4, !tbaa !13
  %12 = trunc i32 %11 to i8
  %13 = load ptr, ptr %3, align 8, !tbaa !33
  %14 = getelementptr inbounds nuw %struct.strbuf, ptr %13, i32 0, i32 2
  %15 = load ptr, ptr %14, align 8, !tbaa !10
  %16 = load ptr, ptr %3, align 8, !tbaa !33
  %17 = getelementptr inbounds nuw %struct.strbuf, ptr %16, i32 0, i32 1
  %18 = load i64, ptr %17, align 8, !tbaa !35
  %19 = add i64 %18, 1
  store i64 %19, ptr %17, align 8, !tbaa !35
  %20 = getelementptr inbounds nuw i8, ptr %15, i64 %18
  store i8 %12, ptr %20, align 1, !tbaa !9
  %21 = load ptr, ptr %3, align 8, !tbaa !33
  %22 = getelementptr inbounds nuw %struct.strbuf, ptr %21, i32 0, i32 2
  %23 = load ptr, ptr %22, align 8, !tbaa !10
  %24 = load ptr, ptr %3, align 8, !tbaa !33
  %25 = getelementptr inbounds nuw %struct.strbuf, ptr %24, i32 0, i32 1
  %26 = load i64, ptr %25, align 8, !tbaa !35
  %27 = getelementptr inbounds nuw i8, ptr %23, i64 %26
  store i8 0, ptr %27, align 1, !tbaa !9
  ret void
}

; Function Attrs: nounwind uwtable
define internal void @store_create_section(ptr dead_on_unwind noalias writable sret(%struct.strbuf) align 8 %0, ptr noundef %1, ptr noundef %2) #0 {
  %4 = alloca ptr, align 8
  %5 = alloca ptr, align 8
  %6 = alloca ptr, align 8
  %7 = alloca i64, align 8
  store ptr %1, ptr %4, align 8, !tbaa !4
  store ptr %2, ptr %5, align 8, !tbaa !177
  call void @llvm.lifetime.start.p0(i64 8, ptr %6) #13
  call void @llvm.lifetime.start.p0(i64 8, ptr %7) #13
  call void @llvm.memcpy.p0.p0.i64(ptr align 8 %0, ptr align 8 @__const.store_create_section.sb, i64 24, i1 false)
  %8 = load ptr, ptr %4, align 8, !tbaa !4
  %9 = load ptr, ptr %5, align 8, !tbaa !177
  %10 = getelementptr inbounds nuw %struct.config_store_data, ptr %9, i32 0, i32 0
  %11 = load i64, ptr %10, align 8, !tbaa !180
  %12 = call ptr @memchr(ptr noundef %8, i32 noundef 46, i64 noundef %11) #14
  store ptr %12, ptr %6, align 8, !tbaa !4
  %13 = load ptr, ptr %6, align 8, !tbaa !4
  %14 = icmp ne ptr %13, null
  br i1 %14, label %15, label %60

15:                                               ; preds = %3
  %16 = load ptr, ptr %6, align 8, !tbaa !4
  %17 = load ptr, ptr %4, align 8, !tbaa !4
  %18 = ptrtoint ptr %16 to i64
  %19 = ptrtoint ptr %17 to i64
  %20 = sub i64 %18, %19
  %21 = trunc i64 %20 to i32
  %22 = load ptr, ptr %4, align 8, !tbaa !4
  call void (ptr, ptr, ...) @strbuf_addf(ptr noundef %0, ptr noundef @.str.233, i32 noundef %21, ptr noundef %22)
  %23 = load ptr, ptr %6, align 8, !tbaa !4
  %24 = load ptr, ptr %4, align 8, !tbaa !4
  %25 = ptrtoint ptr %23 to i64
  %26 = ptrtoint ptr %24 to i64
  %27 = sub i64 %25, %26
  %28 = add nsw i64 %27, 1
  store i64 %28, ptr %7, align 8, !tbaa !19
  br label %29

29:                                               ; preds = %56, %15
  %30 = load i64, ptr %7, align 8, !tbaa !19
  %31 = load ptr, ptr %5, align 8, !tbaa !177
  %32 = getelementptr inbounds nuw %struct.config_store_data, ptr %31, i32 0, i32 0
  %33 = load i64, ptr %32, align 8, !tbaa !180
  %34 = icmp ult i64 %30, %33
  br i1 %34, label %35, label %59

35:                                               ; preds = %29
  %36 = load ptr, ptr %4, align 8, !tbaa !4
  %37 = load i64, ptr %7, align 8, !tbaa !19
  %38 = getelementptr inbounds nuw i8, ptr %36, i64 %37
  %39 = load i8, ptr %38, align 1, !tbaa !9
  %40 = sext i8 %39 to i32
  %41 = icmp eq i32 %40, 34
  br i1 %41, label %49, label %42

42:                                               ; preds = %35
  %43 = load ptr, ptr %4, align 8, !tbaa !4
  %44 = load i64, ptr %7, align 8, !tbaa !19
  %45 = getelementptr inbounds nuw i8, ptr %43, i64 %44
  %46 = load i8, ptr %45, align 1, !tbaa !9
  %47 = sext i8 %46 to i32
  %48 = icmp eq i32 %47, 92
  br i1 %48, label %49, label %50

49:                                               ; preds = %42, %35
  call void @strbuf_addch(ptr noundef %0, i32 noundef 92)
  br label %50

50:                                               ; preds = %49, %42
  %51 = load ptr, ptr %4, align 8, !tbaa !4
  %52 = load i64, ptr %7, align 8, !tbaa !19
  %53 = getelementptr inbounds nuw i8, ptr %51, i64 %52
  %54 = load i8, ptr %53, align 1, !tbaa !9
  %55 = sext i8 %54 to i32
  call void @strbuf_addch(ptr noundef %0, i32 noundef %55)
  br label %56

56:                                               ; preds = %50
  %57 = load i64, ptr %7, align 8, !tbaa !19
  %58 = add i64 %57, 1
  store i64 %58, ptr %7, align 8, !tbaa !19
  br label %29, !llvm.loop !230

59:                                               ; preds = %29
  call void @strbuf_addstr(ptr noundef %0, ptr noundef @.str.234)
  br label %65

60:                                               ; preds = %3
  call void @strbuf_addch(ptr noundef %0, i32 noundef 91)
  %61 = load ptr, ptr %4, align 8, !tbaa !4
  %62 = load ptr, ptr %5, align 8, !tbaa !177
  %63 = getelementptr inbounds nuw %struct.config_store_data, ptr %62, i32 0, i32 0
  %64 = load i64, ptr %63, align 8, !tbaa !180
  call void @strbuf_add(ptr noundef %0, ptr noundef %61, i64 noundef %64)
  call void @strbuf_addstr(ptr noundef %0, ptr noundef @.str.235)
  br label %65

65:                                               ; preds = %60, %59
  call void @llvm.lifetime.end.p0(i64 8, ptr %7) #13
  call void @llvm.lifetime.end.p0(i64 8, ptr %6) #13
  ret void
}