; Function Attrs: nounwind uwtable
define internal fastcc void @store_create_section(ptr dead_on_unwind noalias nonnull writable align 8 initializes((0, 24)) %0, ptr noundef %1, ptr noundef nonnull readonly captures(none) %2) unnamed_addr #0 {
  tail call void @llvm.memcpy.p0.p0.i64(ptr noundef nonnull align 8 dereferenceable(24) %0, ptr noundef nonnull align 8 dereferenceable(24) @__const.repo_config_copy_or_rename_section_in_file.copystr, i64 24, i1 false)
  %4 = load i64, ptr %2, align 8, !tbaa !160
  %5 = tail call ptr @memchr(ptr noundef %1, i32 noundef 46, i64 noundef %4) #29
  %.not = icmp eq ptr %5, null
  br i1 %.not, label %strbuf_addch.exit39, label %6

6:                                                ; preds = %3
  %7 = ptrtoint ptr %5 to i64
  %8 = ptrtoint ptr %1 to i64
  %9 = sub i64 %7, %8
  %10 = trunc i64 %9 to i32
  tail call void (ptr, ptr, ...) @strbuf_addf(ptr noundef nonnull %0, ptr noundef nonnull @.str.233, i32 noundef %10, ptr noundef %1) #30
  %.040 = add i64 %9, 1
  %11 = load i64, ptr %2, align 8, !tbaa !160
  %12 = icmp ult i64 %.040, %11
  br i1 %12, label %.lr.ph, label %._crit_edge

.lr.ph:                                           ; preds = %6
  %13 = getelementptr inbounds nuw i8, ptr %0, i64 8
  %14 = getelementptr inbounds nuw i8, ptr %0, i64 16
  br label %15

15:                                               ; preds = %.lr.ph, %strbuf_addch.exit29
  %.041 = phi i64 [ %.040, %.lr.ph ], [ %.0, %strbuf_addch.exit29 ]
  %16 = getelementptr inbounds nuw i8, ptr %1, i64 %.041
  %17 = load i8, ptr %16, align 1, !tbaa !4
  switch i8 %17, label %27 [
    i8 34, label %18
    i8 92, label %18
  ]

18:                                               ; preds = %15, %15
  %19 = load i64, ptr %0, align 8, !tbaa !7
  %.not.i.i = icmp eq i64 %19, 0
  br i1 %.not.i.i, label %strbuf_avail.exit.thread.i, label %strbuf_avail.exit.i

strbuf_avail.exit.i:                              ; preds = %18
  %20 = load i64, ptr %13, align 8, !tbaa !12
  %.neg.i = add i64 %20, 1
  %.not.i = icmp eq i64 %19, %.neg.i
  br i1 %.not.i, label %strbuf_avail.exit.thread.i, label %strbuf_addch.exit

strbuf_avail.exit.thread.i:                       ; preds = %strbuf_avail.exit.i, %18
  tail call void @strbuf_grow(ptr noundef nonnull %0, i64 noundef 1) #30
  %.pre.i = load i64, ptr %13, align 8, !tbaa !12
  %.pre7.i = add i64 %.pre.i, 1
  br label %strbuf_addch.exit

strbuf_addch.exit:                                ; preds = %strbuf_avail.exit.i, %strbuf_avail.exit.thread.i
  %.pre-phi.i = phi i64 [ %.pre7.i, %strbuf_avail.exit.thread.i ], [ %.neg.i, %strbuf_avail.exit.i ]
  %21 = phi i64 [ %.pre.i, %strbuf_avail.exit.thread.i ], [ %20, %strbuf_avail.exit.i ]
  %22 = load ptr, ptr %14, align 8, !tbaa !13
  store i64 %.pre-phi.i, ptr %13, align 8, !tbaa !12
  %23 = getelementptr inbounds nuw i8, ptr %22, i64 %21
  store i8 92, ptr %23, align 1, !tbaa !4
  %24 = load ptr, ptr %14, align 8, !tbaa !13
  %25 = load i64, ptr %13, align 8, !tbaa !12
  %26 = getelementptr inbounds nuw i8, ptr %24, i64 %25
  store i8 0, ptr %26, align 1, !tbaa !4
  %.pre = load i8, ptr %16, align 1, !tbaa !4
  br label %27

27:                                               ; preds = %15, %strbuf_addch.exit
  %28 = phi i8 [ %17, %15 ], [ %.pre, %strbuf_addch.exit ]
  %29 = load i64, ptr %0, align 8, !tbaa !7
  %.not.i.i20 = icmp eq i64 %29, 0
  br i1 %.not.i.i20, label %strbuf_avail.exit.thread.i25, label %strbuf_avail.exit.i21

strbuf_avail.exit.i21:                            ; preds = %27
  %30 = load i64, ptr %13, align 8, !tbaa !12
  %.neg.i22 = add i64 %30, 1
  %.not.i23 = icmp eq i64 %29, %.neg.i22
  br i1 %.not.i23, label %strbuf_avail.exit.thread.i25, label %strbuf_addch.exit29

strbuf_avail.exit.thread.i25:                     ; preds = %strbuf_avail.exit.i21, %27
  tail call void @strbuf_grow(ptr noundef nonnull %0, i64 noundef 1) #30
  %.pre.i27 = load i64, ptr %13, align 8, !tbaa !12
  %.pre7.i28 = add i64 %.pre.i27, 1
  br label %strbuf_addch.exit29

strbuf_addch.exit29:                              ; preds = %strbuf_avail.exit.i21, %strbuf_avail.exit.thread.i25
  %.pre-phi.i24 = phi i64 [ %.pre7.i28, %strbuf_avail.exit.thread.i25 ], [ %.neg.i22, %strbuf_avail.exit.i21 ]
  %31 = phi i64 [ %.pre.i27, %strbuf_avail.exit.thread.i25 ], [ %30, %strbuf_avail.exit.i21 ]
  %32 = load ptr, ptr %14, align 8, !tbaa !13
  store i64 %.pre-phi.i24, ptr %13, align 8, !tbaa !12
  %33 = getelementptr inbounds nuw i8, ptr %32, i64 %31
  store i8 %28, ptr %33, align 1, !tbaa !4
  %34 = load ptr, ptr %14, align 8, !tbaa !13
  %35 = load i64, ptr %13, align 8, !tbaa !12
  %36 = getelementptr inbounds nuw i8, ptr %34, i64 %35
  store i8 0, ptr %36, align 1, !tbaa !4
  %.0 = add nuw i64 %.041, 1
  %37 = load i64, ptr %2, align 8, !tbaa !160
  %38 = icmp ult i64 %.0, %37
  br i1 %38, label %15, label %._crit_edge, !llvm.loop !188

._crit_edge:                                      ; preds = %strbuf_addch.exit29, %6
  tail call void @strbuf_add(ptr noundef nonnull %0, ptr noundef nonnull @.str.234, i64 noundef 3) #30
  br label %46

strbuf_addch.exit39:                              ; preds = %3
  tail call void @strbuf_grow(ptr noundef nonnull %0, i64 noundef 1) #30
  %.phi.trans.insert = getelementptr inbounds nuw i8, ptr %0, i64 16
  %.pre42 = load ptr, ptr %.phi.trans.insert, align 8, !tbaa !13
  %.phi.trans.insert.i36 = getelementptr inbounds nuw i8, ptr %0, i64 8
  %.pre.i37 = load i64, ptr %.phi.trans.insert.i36, align 8, !tbaa !12
  %.pre7.i38 = add i64 %.pre.i37, 1
  %39 = getelementptr inbounds nuw i8, ptr %0, i64 16
  %40 = getelementptr inbounds nuw i8, ptr %0, i64 8
  store i64 %.pre7.i38, ptr %40, align 8, !tbaa !12
  %41 = getelementptr inbounds nuw i8, ptr %.pre42, i64 %.pre.i37
  store i8 91, ptr %41, align 1, !tbaa !4
  %42 = load ptr, ptr %39, align 8, !tbaa !13
  %43 = load i64, ptr %40, align 8, !tbaa !12
  %44 = getelementptr inbounds nuw i8, ptr %42, i64 %43
  store i8 0, ptr %44, align 1, !tbaa !4
  %45 = load i64, ptr %2, align 8, !tbaa !160
  tail call void @strbuf_add(ptr noundef nonnull %0, ptr noundef %1, i64 noundef %45) #30
  tail call void @strbuf_add(ptr noundef nonnull %0, ptr noundef nonnull @.str.235, i64 noundef 2) #30
  br label %46

46:                                               ; preds = %strbuf_addch.exit39, %._crit_edge
  ret void
}